target datalayout = "e-m:e-p270:32:32-p271:32:32-p272:64:64-i64:64-i128:128-f80:128-n8:16:32:64-S128"
target triple = "x86_64-pc-linux-gnu"

%struct.wtap = type { ptr, ptr, i8, i32, i32, ptr, ptr, ptr, i32, ptr, ptr, ptr, ptr, ptr, ptr, ptr, ptr, ptr, ptr, i32, i32, ptr, ptr, ptr, ptr }
%struct.iseries_t = type { i8, i32, i32, i32, i32 }

@.str.5 = private unnamed_addr constant [38 x i8] c"%*[ \0A\09]ETHV2%*[ .:\0A\09]TYPE%*[ .:\0A\09]%4s\00", align 1
@.str.6 = private unnamed_addr constant [54 x i8] c"iseries: next packet header not found within %d lines\00", align 1

; Function Attrs: nounwind null_pointer_is_valid sspstrong uwtable
define internal i32 @iseries_UNICODE_to_ASCII(ptr noundef %0, i32 noundef %1) #8 {
  %3 = alloca ptr, align 8
  %4 = alloca i32, align 4
  %5 = alloca i32, align 4
  %6 = alloca ptr, align 8
  store ptr %0, ptr %3, align 8
  store i32 %1, ptr %4, align 4
  call void @llvm.lifetime.start.p0(i64 4, ptr %5) #13
  call void @llvm.lifetime.start.p0(i64 8, ptr %6) #13
  %7 = load ptr, ptr %3, align 8
  store ptr %7, ptr %6, align 8
  store i32 0, ptr %5, align 4
  br label %8

8:                                                ; preds = %39, %2
  %9 = load i32, ptr %5, align 4
  %10 = load i32, ptr %4, align 4
  %11 = icmp ult i32 %9, %10
  br i1 %11, label %12, label %42

12:                                               ; preds = %8
  %13 = load ptr, ptr %3, align 8
  %14 = load i32, ptr %5, align 4
  %15 = zext i32 %14 to i64
  %16 = getelementptr i8, ptr %13, i64 %15
  %17 = load i8, ptr %16, align 1
  %18 = zext i8 %17 to i32
  switch i32 %18, label %20 [
    i32 254, label %19
    i32 255, label %19
    i32 0, label %19
  ]

19:                                               ; preds = %12, %12, %12
  br label %29

20:                                               ; preds = %12
  %21 = load ptr, ptr %3, align 8
  %22 = load i32, ptr %5, align 4
  %23 = zext i32 %22 to i64
  %24 = getelementptr i8, ptr %21, i64 %23
  %25 = load i8, ptr %24, align 1
  %26 = load ptr, ptr %6, align 8
  store i8 %25, ptr %26, align 1
  %27 = load ptr, ptr %6, align 8
  %28 = getelementptr i8, ptr %27, i32 1
  store ptr %28, ptr %6, align 8
  br label %29

29:                                               ; preds = %20, %19
  %30 = load ptr, ptr %3, align 8
  %31 = load i32, ptr %5, align 4
  %32 = zext i32 %31 to i64
  %33 = getelementptr i8, ptr %30, i64 %32
  %34 = load i8, ptr %33, align 1
  %35 = zext i8 %34 to i32
  %36 = icmp eq i32 %35, 10
  br i1 %36, label %37, label %38

37:                                               ; preds = %29
  br label %42

38:                                               ; preds = %29
  br label %39

39:                                               ; preds = %38
  %40 = load i32, ptr %5, align 4
  %41 = add i32 %40, 1
  store i32 %41, ptr %5, align 4
  br label %8, !llvm.loop !12

42:                                               ; preds = %37, %8
  br label %43

43:                                               ; preds = %42
  br label %44

44:                                               ; preds = %43
  br label %45

45:                                               ; preds = %44
  %46 = load ptr, ptr %6, align 8
  store i8 0, ptr %46, align 1
  %47 = load i32, ptr %5, align 4
  call void @llvm.lifetime.end.p0(i64 8, ptr %6) #13
  call void @llvm.lifetime.end.p0(i64 4, ptr %5) #13
  ret i32 %47
}

; Function Attrs: null_pointer_is_valid sspstrong uwtable
define internal i64 @iseries_seek_next_packet(ptr noundef %0, ptr noundef %1, ptr noundef %2) #0 {
  %4 = alloca i64, align 8
  %5 = alloca ptr, align 8
  %6 = alloca ptr, align 8
  %7 = alloca ptr, align 8
  %8 = alloca ptr, align 8
  %9 = alloca [270 x i8], align 16
  %10 = alloca [5 x i8], align 1
  %11 = alloca i32, align 4
  %12 = alloca i32, align 4
  %13 = alloca i64, align 8
  %14 = alloca i64, align 8
  %15 = alloca i32, align 4
  store ptr %0, ptr %5, align 8
  store ptr %1, ptr %6, align 8
  store ptr %2, ptr %7, align 8
  call void @llvm.lifetime.start.p0(i64 8, ptr %8) #13
  %16 = load ptr, ptr %5, align 8
  %17 = getelementptr inbounds nuw %struct.wtap, ptr %16, i32 0, i32 13
  %18 = load ptr, ptr %17, align 8
  store ptr %18, ptr %8, align 8
  call void @llvm.lifetime.start.p0(i64 270, ptr %9) #13
  call void @llvm.lifetime.start.p0(i64 5, ptr %10) #13
  call void @llvm.lifetime.start.p0(i64 4, ptr %11) #13
  call void @llvm.lifetime.start.p0(i64 4, ptr %12) #13
  call void @llvm.lifetime.start.p0(i64 8, ptr %13) #13
  call void @llvm.lifetime.start.p0(i64 8, ptr %14) #13
  store i32 0, ptr %11, align 4
  br label %19

19:                                               ; preds = %91, %3
  %20 = load i32, ptr %11, align 4
  %21 = icmp slt i32 %20, 99999999
  br i1 %21, label %22, label %94

22:                                               ; preds = %19
  %23 = getelementptr inbounds [270 x i8], ptr %9, i64 0, i64 0
  %24 = load ptr, ptr %5, align 8
  %25 = getelementptr inbounds nuw %struct.wtap, ptr %24, i32 0, i32 0
  %26 = load ptr, ptr %25, align 8
  %27 = call ptr @file_gets(ptr noundef %23, i32 noundef 270, ptr noundef %26)
  %28 = icmp eq ptr %27, null
  br i1 %28, label %29, label %36

29:                                               ; preds = %22
  %30 = load ptr, ptr %5, align 8
  %31 = getelementptr inbounds nuw %struct.wtap, ptr %30, i32 0, i32 0
  %32 = load ptr, ptr %31, align 8
  %33 = load ptr, ptr %7, align 8
  %34 = call i32 @file_error(ptr noundef %32, ptr noundef %33)
  %35 = load ptr, ptr %6, align 8
  store i32 %34, ptr %35, align 4
  store i64 -1, ptr %4, align 8
  store i32 1, ptr %15, align 4
  br label %98

36:                                               ; preds = %22
  %37 = load ptr, ptr %8, align 8
  %38 = getelementptr inbounds nuw %struct.iseries_t, ptr %37, i32 0, i32 4
  %39 = load i32, ptr %38, align 4
  %40 = icmp eq i32 %39, 2
  br i1 %40, label %41, label %45

41:                                               ; preds = %36
  %42 = getelementptr inbounds [270 x i8], ptr %9, i64 0, i64 0
  %43 = call i32 @iseries_UNICODE_to_ASCII(ptr noundef %42, i32 noundef 270)
  %44 = sext i32 %43 to i64
  store i64 %44, ptr %14, align 8
  br label %48

45:                                               ; preds = %36
  %46 = getelementptr inbounds [270 x i8], ptr %9, i64 0, i64 0
  %47 = call i64 @strlen(ptr noundef %46) #14
  store i64 %47, ptr %14, align 8
  br label %48

48:                                               ; preds = %45, %41
  %49 = getelementptr inbounds [270 x i8], ptr %9, i64 0, i64 0
  %50 = call ptr @ascii_strup_inplace(ptr noundef %49)
  %51 = load i64, ptr %14, align 8
  %52 = icmp slt i64 %51, 78
  br i1 %52, label %53, label %54

53:                                               ; preds = %48
  br label %91

54:                                               ; preds = %48
  %55 = getelementptr inbounds [270 x i8], ptr %9, i64 0, i64 0
  %56 = getelementptr i8, ptr %55, i64 78
  %57 = getelementptr inbounds [5 x i8], ptr %10, i64 0, i64 0
  %58 = call i32 (ptr, ptr, ...) @__isoc99_sscanf(ptr noundef %56, ptr noundef @.str.5, ptr noundef %57) #13
  store i32 %58, ptr %12, align 4
  %59 = load i32, ptr %12, align 4
  %60 = icmp eq i32 %59, 1
  br i1 %60, label %61, label %90

61:                                               ; preds = %54
  %62 = load ptr, ptr %5, align 8
  %63 = getelementptr inbounds nuw %struct.wtap, ptr %62, i32 0, i32 0
  %64 = load ptr, ptr %63, align 8
  %65 = call i64 @file_tell(ptr noundef %64)
  store i64 %65, ptr %13, align 8
  %66 = load i64, ptr %13, align 8
  %67 = icmp eq i64 %66, -1
  br i1 %67, label %68, label %75

68:                                               ; preds = %61
  %69 = load ptr, ptr %5, align 8
  %70 = getelementptr inbounds nuw %struct.wtap, ptr %69, i32 0, i32 0
  %71 = load ptr, ptr %70, align 8
  %72 = load ptr, ptr %7, align 8
  %73 = call i32 @file_error(ptr noundef %71, ptr noundef %72)
  %74 = load ptr, ptr %6, align 8
  store i32 %73, ptr %74, align 4
  store i64 -1, ptr %4, align 8
  store i32 1, ptr %15, align 4
  br label %98

75:                                               ; preds = %61
  %76 = load ptr, ptr %5, align 8
  %77 = getelementptr inbounds nuw %struct.wtap, ptr %76, i32 0, i32 0
  %78 = load ptr, ptr %77, align 8
  %79 = load i64, ptr %13, align 8
  %80 = load i64, ptr %14, align 8
  %81 = sub i64 %79, %80
  %82 = load ptr, ptr %6, align 8
  %83 = call i64 @file_seek(ptr noundef %78, i64 noundef %81, i32 noundef 0, ptr noundef %82)
  %84 = icmp eq i64 %83, -1
  br i1 %84, label %85, label %86

85:                                               ; preds = %75
  store i64 -1, ptr %4, align 8
  store i32 1, ptr %15, align 4
  br label %98

86:                                               ; preds = %75
  %87 = load i64, ptr %13, align 8
  %88 = load i64, ptr %14, align 8
  %89 = sub i64 %87, %88
  store i64 %89, ptr %4, align 8
  store i32 1, ptr %15, align 4
  br label %98

90:                                               ; preds = %54
  br label %91

91:                                               ; preds = %90, %53
  %92 = load i32, ptr %11, align 4
  %93 = add i32 %92, 1
  store i32 %93, ptr %11, align 4
  br label %19, !llvm.loop !13

94:                                               ; preds = %19
  %95 = load ptr, ptr %6, align 8
  store i32 -13, ptr %95, align 4
  %96 = call noalias ptr (ptr, ptr, ...) @wmem_strdup_printf(ptr noundef null, ptr noundef @.str.6, i32 noundef 99999999)
  %97 = load ptr, ptr %7, align 8
  store ptr %96, ptr %97, align 8
  store i64 -1, ptr %4, align 8
  store i32 1, ptr %15, align 4
  br label %98

98:                                               ; preds = %94, %86, %85, %68, %29
  call void @llvm.lifetime.end.p0(i64 8, ptr %14) #13
  call void @llvm.lifetime.end.p0(i64 8, ptr %13) #13
  call void @llvm.lifetime.end.p0(i64 4, ptr %12) #13
  call void @llvm.lifetime.end.p0(i64 4, ptr %11) #13
  call void @llvm.lifetime.end.p0(i64 5, ptr %10) #13
  call void @llvm.lifetime.end.p0(i64 270, ptr %9) #13
  call void @llvm.lifetime.end.p0(i64 8, ptr %8) #13
  %99 = load i64, ptr %4, align 8
  ret i64 %99
}

; Function Attrs: null_pointer_is_valid sspstrong uwtable
define internal zeroext i1 @iseries_read(ptr noundef %0, ptr noundef %1, ptr noundef %2, ptr noundef %3, ptr noundef %4) #0 {
  %6 = alloca i1, align 1
  %7 = alloca ptr, align 8
  %8 = alloca ptr, align 8
  %9 = alloca ptr, align 8
  %10 = alloca ptr, align 8
  %11 = alloca ptr, align 8
  %12 = alloca i64, align 8
  %13 = alloca i32, align 4
  store ptr %0, ptr %7, align 8
  store ptr %1, ptr %8, align 8
  store ptr %2, ptr %9, align 8
  store ptr %3, ptr %10, align 8
  store ptr %4, ptr %11, align 8
  call void @llvm.lifetime.start.p0(i64 8, ptr %12) #13
  %14 = load ptr, ptr %7, align 8
  %15 = load ptr, ptr %9, align 8
  %16 = load ptr, ptr %10, align 8
  %17 = call i64 @iseries_seek_next_packet(ptr noundef %14, ptr noundef %15, ptr noundef %16)
  store i64 %17, ptr %12, align 8
  %18 = load i64, ptr %12, align 8
  %19 = icmp slt i64 %18, 0
  br i1 %19, label %20, label %21

20:                                               ; preds = %5
  store i1 false, ptr %6, align 1
  store i32 1, ptr %13, align 4
  br label %32

21:                                               ; preds = %5
  %22 = load i64, ptr %12, align 8
  %23 = load ptr, ptr %11, align 8
  store i64 %22, ptr %23, align 8
  %24 = load ptr, ptr %7, align 8
  %25 = load ptr, ptr %7, align 8
  %26 = getelementptr inbounds nuw %struct.wtap, ptr %25, i32 0, i32 0
  %27 = load ptr, ptr %26, align 8
  %28 = load ptr, ptr %8, align 8
  %29 = load ptr, ptr %9, align 8
  %30 = load ptr, ptr %10, align 8
  %31 = call zeroext i1 @iseries_parse_packet(ptr noundef %24, ptr noundef %27, ptr noundef %28, ptr noundef %29, ptr noundef %30)
  store i1 %31, ptr %6, align 1
  store i32 1, ptr %13, align 4
  br label %32

32:                                               ; preds = %21, %20
  call void @llvm.lifetime.end.p0(i64 8, ptr %12) #13
  %33 = load i1, ptr %6, align 1
  ret i1 %33
}