; Function Attrs: null_pointer_is_valid sspstrong uwtable
define internal noundef zeroext i1 @iseries_read(ptr noundef readonly captures(none) %0, ptr noundef %1, ptr noundef %2, ptr noundef %3, ptr noundef writeonly captures(none) %4) #0 {
  %6 = alloca [270 x i8], align 16
  %7 = alloca [5 x i8], align 1
  %8 = getelementptr inbounds nuw i8, ptr %0, i64 96
  %9 = load ptr, ptr %8, align 8
  call void @llvm.lifetime.start.p0(i64 270, ptr nonnull %6) #13
  call void @llvm.lifetime.start.p0(i64 5, ptr nonnull %7) #13
  %10 = getelementptr inbounds nuw i8, ptr %9, i64 16
  %11 = getelementptr inbounds nuw i8, ptr %6, i64 78
  br label %12

12:                                               ; preds = %47, %5
  %.02427.i = phi i32 [ 0, %5 ], [ %48, %47 ]
  %13 = load ptr, ptr %0, align 8
  %14 = call ptr @file_gets(ptr noundef nonnull %6, i32 noundef 270, ptr noundef %13)
  %15 = icmp eq ptr %14, null
  br i1 %15, label %16, label %19

16:                                               ; preds = %12
  %17 = load ptr, ptr %0, align 8
  %18 = call i32 @file_error(ptr noundef %17, ptr noundef %3)
  store i32 %18, ptr %2, align 4
  br label %iseries_seek_next_packet.exit.thread

19:                                               ; preds = %12
  %20 = load i32, ptr %10, align 4
  %21 = icmp eq i32 %20, 2
  br i1 %21, label %.preheader.i, label %28

.preheader.i:                                     ; preds = %19, %.thread.i.i
  %indvars.iv.i.i = phi i64 [ %indvars.iv.next.i.i, %.thread.i.i ], [ 0, %19 ]
  %.017.i.i = phi ptr [ %.115.i.i, %.thread.i.i ], [ %6, %19 ]
  %22 = getelementptr i8, ptr %6, i64 %indvars.iv.i.i
  %23 = load i8, ptr %22, align 1
  switch i8 %23, label %24 [
    i8 -2, label %.thread.i.i
    i8 -1, label %.thread.i.i
    i8 0, label %.thread.i.i
  ]

24:                                               ; preds = %.preheader.i
  store i8 %23, ptr %.017.i.i, align 1
  %25 = getelementptr i8, ptr %.017.i.i, i64 1
  %.pr.i.i = load i8, ptr %22, align 1
  %26 = icmp eq i8 %.pr.i.i, 10
  br i1 %26, label %.split.loop.exit19.i.i, label %.thread.i.i

.thread.i.i:                                      ; preds = %24, %.preheader.i, %.preheader.i, %.preheader.i
  %.115.i.i = phi ptr [ %25, %24 ], [ %.017.i.i, %.preheader.i ], [ %.017.i.i, %.preheader.i ], [ %.017.i.i, %.preheader.i ]
  %indvars.iv.next.i.i = add nuw nsw i64 %indvars.iv.i.i, 1
  %exitcond.not.i.i = icmp eq i64 %indvars.iv.next.i.i, 270
  br i1 %exitcond.not.i.i, label %iseries_UNICODE_to_ASCII.exit.i, label %.preheader.i, !llvm.loop !9

.split.loop.exit19.i.i:                           ; preds = %24
  %sext.i = shl i64 %indvars.iv.i.i, 32
  %27 = ashr exact i64 %sext.i, 32
  br label %iseries_UNICODE_to_ASCII.exit.i

iseries_UNICODE_to_ASCII.exit.i:                  ; preds = %.thread.i.i, %.split.loop.exit19.i.i
  %.013.lcssa.i.i = phi i64 [ %27, %.split.loop.exit19.i.i ], [ 270, %.thread.i.i ]
  %.2.i.i = phi ptr [ %25, %.split.loop.exit19.i.i ], [ %.115.i.i, %.thread.i.i ]
  store i8 0, ptr %.2.i.i, align 1
  br label %30

28:                                               ; preds = %19
  %29 = call i64 @strlen(ptr noundef nonnull dereferenceable(1) %6) #15
  br label %30

30:                                               ; preds = %28, %iseries_UNICODE_to_ASCII.exit.i
  %.0.i = phi i64 [ %.013.lcssa.i.i, %iseries_UNICODE_to_ASCII.exit.i ], [ %29, %28 ]
  %31 = call ptr @ascii_strup_inplace(ptr noundef nonnull %6)
  %32 = icmp slt i64 %.0.i, 78
  br i1 %32, label %47, label %33

33:                                               ; preds = %30
  %34 = call i32 (ptr, ptr, ...) @__isoc99_sscanf(ptr noundef nonnull %11, ptr noundef nonnull @.str.5, ptr noundef nonnull %7) #13
  %35 = icmp eq i32 %34, 1
  br i1 %35, label %36, label %47

36:                                               ; preds = %33
  %37 = load ptr, ptr %0, align 8
  %38 = call i64 @file_tell(ptr noundef %37)
  %39 = icmp eq i64 %38, -1
  %40 = load ptr, ptr %0, align 8
  br i1 %39, label %41, label %43

41:                                               ; preds = %36
  %42 = call i32 @file_error(ptr noundef %40, ptr noundef %3)
  store i32 %42, ptr %2, align 4
  br label %iseries_seek_next_packet.exit.thread

43:                                               ; preds = %36
  %44 = sub i64 %38, %.0.i
  %45 = call i64 @file_seek(ptr noundef %40, i64 noundef %44, i32 noundef 0, ptr noundef %2)
  %46 = icmp eq i64 %45, -1
  br i1 %46, label %iseries_seek_next_packet.exit.thread, label %iseries_seek_next_packet.exit

47:                                               ; preds = %33, %30
  %48 = add nuw nsw i32 %.02427.i, 1
  %exitcond.not.i = icmp eq i32 %48, 99999999
  br i1 %exitcond.not.i, label %49, label %12, !llvm.loop !11

49:                                               ; preds = %47
  store i32 -13, ptr %2, align 4
  %50 = call noalias ptr (ptr, ptr, ...) @wmem_strdup_printf(ptr noundef null, ptr noundef nonnull @.str.6, i32 noundef 99999999)
  store ptr %50, ptr %3, align 8
  br label %iseries_seek_next_packet.exit.thread

iseries_seek_next_packet.exit.thread:             ; preds = %16, %41, %49, %43
  call void @llvm.lifetime.end.p0(i64 5, ptr nonnull %7) #13
  call void @llvm.lifetime.end.p0(i64 270, ptr nonnull %6) #13
  br label %55

iseries_seek_next_packet.exit:                    ; preds = %43
  call void @llvm.lifetime.end.p0(i64 5, ptr nonnull %7) #13
  call void @llvm.lifetime.end.p0(i64 270, ptr nonnull %6) #13
  %51 = icmp slt i64 %44, 0
  br i1 %51, label %55, label %52

52:                                               ; preds = %iseries_seek_next_packet.exit
  store i64 %44, ptr %4, align 8
  %53 = load ptr, ptr %0, align 8
  %.val = load ptr, ptr %8, align 8
  %54 = call fastcc zeroext i1 @iseries_parse_packet(ptr %.val, ptr noundef %53, ptr noundef %1, ptr noundef %2, ptr noundef %3)
  br label %55

55:                                               ; preds = %iseries_seek_next_packet.exit.thread, %iseries_seek_next_packet.exit, %52
  %.0 = phi i1 [ %54, %52 ], [ false, %iseries_seek_next_packet.exit ], [ false, %iseries_seek_next_packet.exit.thread ]
  ret i1 %.0
}